; Function Attrs: mustprogress uwtable
define dso_local { <2 x float>, <2 x float> } @_ZNK17btConvexHullShape24localGetSupportingVertexERK9btVector3(ptr noundef nonnull align 8 dereferenceable(152) %0, ptr noundef nonnull align 4 dereferenceable(16) %1) unnamed_addr #8 align 2 {
  %3 = load ptr, ptr %0, align 8, !tbaa !4
  %4 = getelementptr inbounds nuw i8, ptr %3, i64 136
  %5 = load ptr, ptr %4, align 8
  %6 = tail call { <2 x float>, <2 x float> } %5(ptr noundef nonnull align 8 dereferenceable(152) %0, ptr noundef nonnull align 4 dereferenceable(16) %1)
  %7 = load ptr, ptr %0, align 8, !tbaa !4
  %8 = getelementptr inbounds nuw i8, ptr %7, i64 96
  %9 = load ptr, ptr %8, align 8
  %10 = tail call noundef float %9(ptr noundef nonnull align 8 dereferenceable(72) %0)
  %11 = fcmp une float %10, 0.000000e+00
  br i1 %11, label %12, label %38

12:                                               ; preds = %2
  %13 = extractvalue { <2 x float>, <2 x float> } %6, 1
  %14 = extractvalue { <2 x float>, <2 x float> } %6, 0
  %.sroa.06.0.copyload = load float, ptr %1, align 4
  %.sroa.8.0..sroa_idx = getelementptr inbounds nuw i8, ptr %1, i64 4
  %.sroa.8.0.copyload = load float, ptr %.sroa.8.0..sroa_idx, align 4
  %.sroa.13.0..sroa_idx = getelementptr inbounds nuw i8, ptr %1, i64 8
  %.sroa.13.0.copyload = load float, ptr %.sroa.13.0..sroa_idx, align 4
  %15 = fmul float %.sroa.8.0.copyload, %.sroa.8.0.copyload
  %16 = tail call float @llvm.fmuladd.f32(float %.sroa.06.0.copyload, float %.sroa.06.0.copyload, float %15)
  %17 = tail call noundef float @llvm.fmuladd.f32(float %.sroa.13.0.copyload, float %.sroa.13.0.copyload, float %16)
  %18 = fcmp olt float %17, 0x3D10000000000000
  %.sroa.06.0 = select i1 %18, float -1.000000e+00, float %.sroa.06.0.copyload
  %.sroa.8.0 = select i1 %18, float -1.000000e+00, float %.sroa.8.0.copyload
  %.sroa.13.0 = select i1 %18, float -1.000000e+00, float %.sroa.13.0.copyload
  %19 = fmul float %.sroa.8.0, %.sroa.8.0
  %20 = tail call float @llvm.fmuladd.f32(float %.sroa.06.0, float %.sroa.06.0, float %19)
  %21 = tail call noundef float @llvm.fmuladd.f32(float %.sroa.13.0, float %.sroa.13.0, float %20)
  %sqrt.i.i = tail call noundef float @llvm.sqrt.f32(float %21)
  %22 = fdiv float 1.000000e+00, %sqrt.i.i
  %23 = fmul float %.sroa.06.0, %22
  %24 = fmul float %.sroa.8.0, %22
  %25 = fmul float %.sroa.13.0, %22
  %26 = load ptr, ptr %0, align 8, !tbaa !4
  %27 = getelementptr inbounds nuw i8, ptr %26, i64 96
  %28 = load ptr, ptr %27, align 8
  %29 = tail call noundef float %28(ptr noundef nonnull align 8 dereferenceable(72) %0)
  %30 = fmul float %29, %23
  %31 = fmul float %29, %24
  %32 = fmul float %29, %25
  %.sroa.013.0.vec.extract = extractelement <2 x float> %14, i64 0
  %33 = fadd float %.sroa.013.0.vec.extract, %30
  %.sroa.013.0.vec.insert = insertelement <2 x float> poison, float %33, i64 0
  %.sroa.013.4.vec.extract = extractelement <2 x float> %14, i64 1
  %34 = fadd float %.sroa.013.4.vec.extract, %31
  %.sroa.013.4.vec.insert = insertelement <2 x float> %.sroa.013.0.vec.insert, float %34, i64 1
  %.sroa.6.8.vec.extract = extractelement <2 x float> %13, i64 0
  %35 = fadd float %.sroa.6.8.vec.extract, %32
  %.sroa.6.8.vec.insert = insertelement <2 x float> %13, float %35, i64 0
  %36 = insertvalue { <2 x float>, <2 x float> } poison, <2 x float> %.sroa.013.4.vec.insert, 0
  %37 = insertvalue { <2 x float>, <2 x float> } %36, <2 x float> %.sroa.6.8.vec.insert, 1
  br label %38

38:                                               ; preds = %12, %2
  %.fca.1.insert.merged = phi { <2 x float>, <2 x float> } [ %37, %12 ], [ %6, %2 ]
  ret { <2 x float>, <2 x float> } %.fca.1.insert.merged
}